target datalayout = "e-m:e-p270:32:32-p271:32:32-p272:64:64-i64:64-i128:128-f80:128-n8:16:32:64-S128"
target triple = "x86_64-pc-linux-gnu"

%struct.e_in6_addr = type { [16 x i8] }
%struct.hashipv6 = type { [16 x i8], i8, [46 x i8], [256 x i8] }

@addr_resolv_scope = internal global ptr null, align 8
@ipv6_hash_table = internal global ptr null, align 8
@new_resolved_objects = internal global i8 0, align 1

; Function Attrs: alwaysinline nounwind
define internal ptr @memcpy.inline(ptr noalias %0, ptr noalias %1, i64 %2) #8 {
  %4 = alloca ptr, align 8
  %5 = alloca ptr, align 8
  %6 = alloca i64, align 8
  store ptr %0, ptr %4, align 8
  store ptr %1, ptr %5, align 8
  store i64 %2, ptr %6, align 8
  %7 = load ptr, ptr %4, align 8
  %8 = load ptr, ptr %5, align 8
  %9 = load i64, ptr %6, align 8
  %10 = load ptr, ptr %4, align 8
  %11 = call i64 @llvm.objectsize.i64.p0(ptr %10, i1 false, i1 true, i1 true)
  %12 = call ptr @__memcpy_chk(ptr noundef %7, ptr noundef %8, i64 noundef %9, i64 noundef %11) #16
  ret ptr %12
}

; Function Attrs: null_pointer_is_valid sspstrong uwtable
define internal ptr @new_ipv6(ptr noundef %0) #3 {
  %2 = alloca ptr, align 8
  %3 = alloca ptr, align 8
  store ptr %0, ptr %2, align 8
  call void @llvm.lifetime.start.p0(i64 8, ptr %3) #16
  %4 = load ptr, ptr @addr_resolv_scope, align 8
  %5 = call noalias ptr @wmem_alloc(ptr noundef %4, i64 noundef 319) #19
  store ptr %5, ptr %3, align 8
  %6 = load ptr, ptr %3, align 8
  %7 = getelementptr inbounds nuw %struct.hashipv6, ptr %6, i32 0, i32 0
  %8 = getelementptr inbounds [16 x i8], ptr %7, i64 0, i64 0
  %9 = load ptr, ptr %2, align 8
  %10 = getelementptr inbounds nuw %struct.e_in6_addr, ptr %9, i32 0, i32 0
  %11 = getelementptr inbounds [16 x i8], ptr %10, i64 0, i64 0
  %12 = call ptr @memcpy.inline(ptr noundef %8, ptr noundef %11, i64 noundef 16) #16
  %13 = load ptr, ptr %3, align 8
  %14 = getelementptr inbounds nuw %struct.hashipv6, ptr %13, i32 0, i32 1
  store i8 0, ptr %14, align 1
  %15 = load ptr, ptr %3, align 8
  %16 = getelementptr inbounds nuw %struct.hashipv6, ptr %15, i32 0, i32 3
  %17 = getelementptr [256 x i8], ptr %16, i64 0, i64 0
  store i8 0, ptr %17, align 1
  %18 = load ptr, ptr %2, align 8
  %19 = load ptr, ptr %3, align 8
  %20 = getelementptr inbounds nuw %struct.hashipv6, ptr %19, i32 0, i32 2
  %21 = getelementptr inbounds [46 x i8], ptr %20, i64 0, i64 0
  call void @ip6_to_str_buf(ptr noundef %18, ptr noundef %21, i64 noundef 46)
  %22 = load ptr, ptr %3, align 8
  call void @llvm.lifetime.end.p0(i64 8, ptr %3) #16
  ret ptr %22
}

; Function Attrs: null_pointer_is_valid sspstrong uwtable
define void @add_ipv6_name(ptr noundef %0, ptr noundef %1, i1 noundef zeroext %2) #3 {
  %4 = alloca ptr, align 8
  %5 = alloca ptr, align 8
  %6 = alloca i8, align 1
  %7 = alloca ptr, align 8
  %8 = alloca i32, align 4
  %9 = alloca ptr, align 8
  store ptr %0, ptr %4, align 8
  store ptr %1, ptr %5, align 8
  %10 = zext i1 %2 to i8
  store i8 %10, ptr %6, align 1
  call void @llvm.lifetime.start.p0(i64 8, ptr %7) #16
  %11 = load ptr, ptr %5, align 8
  %12 = icmp ne ptr %11, null
  br i1 %12, label %13, label %19

13:                                               ; preds = %3
  %14 = load ptr, ptr %5, align 8
  %15 = getelementptr i8, ptr %14, i64 0
  %16 = load i8, ptr %15, align 1
  %17 = sext i8 %16 to i32
  %18 = icmp eq i32 %17, 0
  br i1 %18, label %19, label %20

19:                                               ; preds = %13, %3
  store i32 1, ptr %8, align 4
  br label %78

20:                                               ; preds = %13
  %21 = load ptr, ptr @ipv6_hash_table, align 8
  %22 = load ptr, ptr %4, align 8
  %23 = call ptr @wmem_map_lookup(ptr noundef %21, ptr noundef %22)
  store ptr %23, ptr %7, align 8
  %24 = load ptr, ptr %7, align 8
  %25 = icmp ne ptr %24, null
  br i1 %25, label %38, label %26

26:                                               ; preds = %20
  call void @llvm.lifetime.start.p0(i64 8, ptr %9) #16
  %27 = load ptr, ptr @addr_resolv_scope, align 8
  %28 = call noalias ptr @wmem_alloc(ptr noundef %27, i64 noundef 16) #19
  store ptr %28, ptr %9, align 8
  %29 = load ptr, ptr %4, align 8
  %30 = call ptr @new_ipv6(ptr noundef %29)
  store ptr %30, ptr %7, align 8
  %31 = load ptr, ptr %9, align 8
  %32 = load ptr, ptr %4, align 8
  %33 = call ptr @memcpy.inline(ptr noundef %31, ptr noundef %32, i64 noundef 16) #16
  %34 = load ptr, ptr @ipv6_hash_table, align 8
  %35 = load ptr, ptr %9, align 8
  %36 = load ptr, ptr %7, align 8
  %37 = call ptr @wmem_map_insert(ptr noundef %34, ptr noundef %35, ptr noundef %36)
  call void @llvm.lifetime.end.p0(i64 8, ptr %9) #16
  br label %38

38:                                               ; preds = %26, %20
  %39 = load ptr, ptr %7, align 8
  %40 = getelementptr inbounds nuw %struct.hashipv6, ptr %39, i32 0, i32 3
  %41 = getelementptr inbounds [256 x i8], ptr %40, i64 0, i64 0
  %42 = load ptr, ptr %5, align 8
  %43 = call i32 @g_ascii_strcasecmp(ptr noundef %41, ptr noundef %42)
  %44 = icmp ne i32 %43, 0
  br i1 %44, label %45, label %71

45:                                               ; preds = %38
  %46 = load i8, ptr %6, align 1, !range !8, !noundef !9
  %47 = trunc i8 %46 to i1
  br i1 %47, label %55, label %48

48:                                               ; preds = %45
  %49 = load ptr, ptr %7, align 8
  %50 = getelementptr inbounds nuw %struct.hashipv6, ptr %49, i32 0, i32 1
  %51 = load i8, ptr %50, align 1
  %52 = zext i8 %51 to i32
  %53 = and i32 %52, 8
  %54 = icmp ne i32 %53, 0
  br i1 %54, label %71, label %55

55:                                               ; preds = %48, %45
  %56 = load ptr, ptr %7, align 8
  %57 = getelementptr inbounds nuw %struct.hashipv6, ptr %56, i32 0, i32 3
  %58 = getelementptr inbounds [256 x i8], ptr %57, i64 0, i64 0
  %59 = load ptr, ptr %5, align 8
  %60 = call i64 @g_strlcpy(ptr noundef %58, ptr noundef %59, i64 noundef 256)
  store i8 1, ptr @new_resolved_objects, align 1
  %61 = load i8, ptr %6, align 1, !range !8, !noundef !9
  %62 = trunc i8 %61 to i1
  br i1 %62, label %63, label %70

63:                                               ; preds = %55
  %64 = load ptr, ptr %7, align 8
  %65 = getelementptr inbounds nuw %struct.hashipv6, ptr %64, i32 0, i32 1
  %66 = load i8, ptr %65, align 1
  %67 = zext i8 %66 to i32
  %68 = or i32 %67, 8
  %69 = trunc i32 %68 to i8
  store i8 %69, ptr %65, align 1
  br label %70

70:                                               ; preds = %63, %55
  br label %71

71:                                               ; preds = %70, %48, %38
  %72 = load ptr, ptr %7, align 8
  %73 = getelementptr inbounds nuw %struct.hashipv6, ptr %72, i32 0, i32 1
  %74 = load i8, ptr %73, align 1
  %75 = zext i8 %74 to i32
  %76 = or i32 %75, 3
  %77 = trunc i32 %76 to i8
  store i8 %77, ptr %73, align 1
  store i32 0, ptr %8, align 4
  br label %78

78:                                               ; preds = %71, %19
  call void @llvm.lifetime.end.p0(i64 8, ptr %7) #16
  %79 = load i32, ptr %8, align 4
  switch i32 %79, label %81 [
    i32 0, label %80
    i32 1, label %80
  ]

80:                                               ; preds = %78, %78
  ret void

81:                                               ; preds = %78
  unreachable
}