; Function Attrs: null_pointer_is_valid sspstrong uwtable
define void @add_ipv6_name(ptr noundef %0, ptr noundef %1, i1 noundef zeroext %2) local_unnamed_addr #3 {
  %.not = icmp eq ptr %1, null
  br i1 %.not, label %39, label %4

4:                                                ; preds = %3
  %5 = load i8, ptr %1, align 1
  %6 = icmp eq i8 %5, 0
  br i1 %6, label %39, label %7

7:                                                ; preds = %4
  %8 = load ptr, ptr @ipv6_hash_table, align 8
  %9 = tail call ptr @wmem_map_lookup(ptr noundef %8, ptr noundef %0)
  %.not19 = icmp eq ptr %9, null
  br i1 %.not19, label %10, label %20

10:                                               ; preds = %7
  %11 = load ptr, ptr @addr_resolv_scope, align 8
  %12 = tail call noalias dereferenceable_or_null(16) ptr @wmem_alloc(ptr noundef %11, i64 noundef 16) #26
  %13 = load ptr, ptr @addr_resolv_scope, align 8
  %14 = tail call noalias dereferenceable_or_null(319) ptr @wmem_alloc(ptr noundef %13, i64 noundef 319) #26
  tail call void @llvm.memcpy.p0.p0.i64(ptr noundef align 1 dereferenceable(16) %14, ptr noundef align 1 dereferenceable(16) %0, i64 noundef 16, i1 noundef false) #24
  %15 = getelementptr inbounds nuw i8, ptr %14, i64 16
  store i8 0, ptr %15, align 1
  %16 = getelementptr inbounds nuw i8, ptr %14, i64 63
  store i8 0, ptr %16, align 1
  %17 = getelementptr inbounds nuw i8, ptr %14, i64 17
  tail call void @ip6_to_str_buf(ptr noundef %0, ptr noundef nonnull %17, i64 noundef 46)
  tail call void @llvm.memcpy.p0.p0.i64(ptr noundef align 1 dereferenceable(16) %12, ptr noundef align 1 dereferenceable(16) %0, i64 noundef 16, i1 noundef false) #24
  %18 = load ptr, ptr @ipv6_hash_table, align 8
  %19 = tail call ptr @wmem_map_insert(ptr noundef %18, ptr noundef %12, ptr noundef %14)
  br label %20

20:                                               ; preds = %10, %7
  %.0 = phi ptr [ %9, %7 ], [ %14, %10 ]
  %21 = getelementptr inbounds nuw i8, ptr %.0, i64 63
  %22 = tail call i32 @g_ascii_strcasecmp(ptr noundef nonnull %21, ptr noundef nonnull %1)
  %.not20 = icmp eq i32 %22, 0
  br i1 %.not20, label %35, label %23

23:                                               ; preds = %20
  br i1 %2, label %30, label %24

24:                                               ; preds = %23
  %25 = getelementptr inbounds nuw i8, ptr %.0, i64 16
  %26 = load i8, ptr %25, align 1
  %27 = and i8 %26, 8
  %.not21 = icmp eq i8 %27, 0
  br i1 %.not21, label %28, label %35

28:                                               ; preds = %24
  %29 = tail call i64 @g_strlcpy(ptr noundef nonnull %21, ptr noundef nonnull %1, i64 noundef 256)
  store i1 true, ptr @new_resolved_objects, align 1
  br label %35

30:                                               ; preds = %23
  %31 = tail call i64 @g_strlcpy(ptr noundef nonnull %21, ptr noundef nonnull %1, i64 noundef 256)
  store i1 true, ptr @new_resolved_objects, align 1
  %32 = getelementptr inbounds nuw i8, ptr %.0, i64 16
  %33 = load i8, ptr %32, align 1
  %34 = or i8 %33, 8
  store i8 %34, ptr %32, align 1
  br label %35

35:                                               ; preds = %28, %30, %24, %20
  %36 = getelementptr inbounds nuw i8, ptr %.0, i64 16
  %37 = load i8, ptr %36, align 1
  %38 = or i8 %37, 3
  store i8 %38, ptr %36, align 1
  br label %39

39:                                               ; preds = %3, %4, %35
  ret void
}